(dp0
S'data'
p1
(lp2
(lp3
I986
aI983
aI983
aI984
aI985
aa(lp4
I1
aI1
aI1
aI1
aI1
aa(lp5
I15
aI18
aI18
aI17
aI16
aa(lp6
F0.2
aF0.17865438478863416
aF0.16034633816894622
aF0.144643601672029
aF0.13117542898196954
aas.