(dp0
S'data'
p1
(lp2
(lp3
I988
aI981
aI979
aI987
aI983
aa(lp4
I1
aI1
aI1
aI1
aI1
aa(lp5
I13
aI20
aI22
aI14
aI18
aa(lp6
F0.2
aF0.17865438478863416
aF0.16034633816894622
aF0.144643601672029
aF0.13117542898196954
aas.