(dp0
S'data'
p1
(lp2
(lp3
I989
aI987
aI984
aI984
aI989
aa(lp4
I1
aI1
aI1
aI1
aI1
aa(lp5
I12
aI14
aI17
aI17
aI12
aa(lp6
F0.2
aF0.17865438478863416
aF0.16034633816894622
aF0.144643601672029
aF0.13117542898196954
aas.