(dp0
S'data'
p1
(lp2
(lp3
I-250
aI-140
aI-80
aI-67
aI994
aa(lp4
I0
aI0
aI0
aI0
aI1
aa(lp5
I250
aI135
aI75
aI62
aI7
aa(lp6
F0.2
aF0.17865438478863416
aF0.16034633816894622
aF0.144643601672029
aF0.13117542898196954
aas.