(dp0
S'data'
p1
(lp2
(lp3
I-50
aI-50
aI-50
aI-50
aI-50
aI-50
aI-50
aI-50
aI-50
aI-50
aa(lp4
I0
aI0
aI0
aI0
aI0
aI0
aI0
aI0
aI0
aI0
aa(lp5
I50
aI50
aI50
aI50
aI50
aI50
aI50
aI50
aI50
aI50
aa(lp6
F0.2
aF0.17865438478863416
aF0.16034633816894622
aF0.144643601672029
aF0.13117542898196954
aF0.1196238325041917
aF0.1097160755830246
aF0.10121823310750405
aF0.09392966846937856
aF0.08767829647264372
aas.